target datalayout = "e-m:e-p270:32:32-p271:32:32-p272:64:64-i64:64-i128:128-f80:128-n8:16:32:64-S128"
target triple = "x86_64-pc-linux-gnu"

%"struct.std::__detail::_Hash_node_base" = type { ptr }
%"struct.std::__detail::_Prime_rehash_policy" = type { float, i64 }
%"class.std::vector.5" = type { %"struct.std::_Vector_base.6" }
%"struct.std::_Vector_base.6" = type { %"struct.std::_Vector_base<WasmEdge::Plugin::Plugin, std::allocator<WasmEdge::Plugin::Plugin>>::_Vector_impl" }
%"struct.std::_Vector_base<WasmEdge::Plugin::Plugin, std::allocator<WasmEdge::Plugin::Plugin>>::_Vector_impl" = type { %"struct.std::_Vector_base<WasmEdge::Plugin::Plugin, std::allocator<WasmEdge::Plugin::Plugin>>::_Vector_impl_data" }
%"struct.std::_Vector_base<WasmEdge::Plugin::Plugin, std::allocator<WasmEdge::Plugin::Plugin>>::_Vector_impl_data" = type { ptr, ptr, ptr }
%"class.std::unordered_map.10" = type { %"class.std::_Hashtable.11" }
%"class.std::_Hashtable.11" = type { ptr, i64, %"struct.std::__detail::_Hash_node_base", i64, %"struct.std::__detail::_Prime_rehash_policy", ptr }
%"class.std::basic_string_view" = type { i64, ptr }
%"class.std::filesystem::__cxx11::path" = type { %"class.std::__cxx11::basic_string", %"struct.std::filesystem::__cxx11::path::_List" }
%"class.std::__cxx11::basic_string" = type { %"struct.std::__cxx11::basic_string<char>::_Alloc_hider", i64, %union.anon }
%"struct.std::__cxx11::basic_string<char>::_Alloc_hider" = type { ptr }
%union.anon = type { i64, [8 x i8] }
%"struct.std::filesystem::__cxx11::path::_List" = type { %"class.std::unique_ptr" }
%"class.std::unique_ptr" = type { %"struct.std::__uniq_ptr_data" }
%"struct.std::__uniq_ptr_data" = type { %"class.std::__uniq_ptr_impl" }
%"class.std::__uniq_ptr_impl" = type { %"class.std::tuple" }
%"class.std::tuple" = type { %"struct.std::_Tuple_impl" }
%"struct.std::_Tuple_impl" = type { %"struct.std::_Head_base.39" }
%"struct.std::_Head_base.39" = type { ptr }
%"class.std::__shared_count" = type { ptr }
%"class.std::shared_ptr" = type { %"class.std::__shared_ptr.40" }
%"class.std::__shared_ptr.40" = type { ptr, %"class.std::__shared_count" }
%"class.WasmEdge::Plugin::Plugin" = type { %"class.std::filesystem::__cxx11::path", ptr, %"class.std::shared_ptr", %"class.std::vector.65", %"class.std::vector.70", %"class.std::unordered_map.10", %"class.std::unordered_map.10" }
%"class.std::vector.65" = type { %"struct.std::_Vector_base.66" }
%"struct.std::_Vector_base.66" = type { %"struct.std::_Vector_base<WasmEdge::Plugin::PluginModule, std::allocator<WasmEdge::Plugin::PluginModule>>::_Vector_impl" }
%"struct.std::_Vector_base<WasmEdge::Plugin::PluginModule, std::allocator<WasmEdge::Plugin::PluginModule>>::_Vector_impl" = type { %"struct.std::_Vector_base<WasmEdge::Plugin::PluginModule, std::allocator<WasmEdge::Plugin::PluginModule>>::_Vector_impl_data" }
%"struct.std::_Vector_base<WasmEdge::Plugin::PluginModule, std::allocator<WasmEdge::Plugin::PluginModule>>::_Vector_impl_data" = type { ptr, ptr, ptr }
%"class.std::vector.70" = type { %"struct.std::_Vector_base.71" }
%"struct.std::_Vector_base.71" = type { %"struct.std::_Vector_base<WasmEdge::Plugin::PluginComponent, std::allocator<WasmEdge::Plugin::PluginComponent>>::_Vector_impl" }
%"struct.std::_Vector_base<WasmEdge::Plugin::PluginComponent, std::allocator<WasmEdge::Plugin::PluginComponent>>::_Vector_impl" = type { %"struct.std::_Vector_base<WasmEdge::Plugin::PluginComponent, std::allocator<WasmEdge::Plugin::PluginComponent>>::_Vector_impl_data" }
%"struct.std::_Vector_base<WasmEdge::Plugin::PluginComponent, std::allocator<WasmEdge::Plugin::PluginComponent>>::_Vector_impl_data" = type { ptr, ptr, ptr }
%"struct.std::__detail::_Node_iterator" = type { %"struct.std::__detail::_Node_iterator_base" }
%"struct.std::__detail::_Node_iterator_base" = type { ptr }
%"struct.std::pair" = type { %"class.std::basic_string_view", i64 }
%"struct.std::__detail::_Hash_node_value_base.100" = type { %"struct.__gnu_cxx::__aligned_buffer.101" }
%"struct.__gnu_cxx::__aligned_buffer.101" = type { %"union.std::aligned_storage<24, 8>::type" }
%"union.std::aligned_storage<24, 8>::type" = type { [24 x i8] }

@_ZN8WasmEdge6Plugin6Plugin14PluginRegistryE = global %"class.std::vector.5" zeroinitializer, align 8
@_ZN8WasmEdge6Plugin6Plugin16PluginNameLookupE = global %"class.std::unordered_map.10" zeroinitializer, align 8

; Function Attrs: mustprogress nounwind uwtable
define linkonce_odr hidden noundef ptr @_ZN9__gnu_cxx16__aligned_bufferISt4pairIKSt17basic_string_viewIcSt11char_traitsIcEEmEE7_M_addrEv(ptr noundef nonnull align 8 dereferenceable(24) %0) #1 comdat align 2 {
  %2 = alloca ptr, align 8
  store ptr %0, ptr %2, align 8
  %3 = load ptr, ptr %2, align 8
  %4 = getelementptr inbounds %"struct.__gnu_cxx::__aligned_buffer.101", ptr %3, i32 0, i32 0
  ret ptr %4
}

; Function Attrs: mustprogress nounwind uwtable
define linkonce_odr hidden void @_ZNSt8__detail19_Node_iterator_baseISt4pairIKSt17basic_string_viewIcSt11char_traitsIcEEmELb1EEC2EPNS_10_Hash_nodeIS7_Lb1EEE(ptr noundef nonnull align 8 dereferenceable(8) %0, ptr noundef %1) unnamed_addr #1 comdat align 2 {
  %3 = alloca ptr, align 8
  %4 = alloca ptr, align 8
  store ptr %0, ptr %3, align 8
  store ptr %1, ptr %4, align 8
  %5 = load ptr, ptr %3, align 8
  %6 = getelementptr inbounds %"struct.std::__detail::_Node_iterator_base", ptr %5, i32 0, i32 0
  %7 = load ptr, ptr %4, align 8
  store ptr %7, ptr %6, align 8
  ret void
}

; Function Attrs: mustprogress nounwind uwtable
define linkonce_odr hidden noundef ptr @_ZN9__gnu_cxx16__aligned_bufferISt4pairIKSt17basic_string_viewIcSt11char_traitsIcEEmEE6_M_ptrEv(ptr noundef nonnull align 8 dereferenceable(24) %0) #1 comdat align 2 {
  %2 = alloca ptr, align 8
  store ptr %0, ptr %2, align 8
  %3 = load ptr, ptr %2, align 8
  %4 = call noundef ptr @_ZN9__gnu_cxx16__aligned_bufferISt4pairIKSt17basic_string_viewIcSt11char_traitsIcEEmEE7_M_addrEv(ptr noundef nonnull align 8 dereferenceable(24) %3) #2
  ret ptr %4
}

; Function Attrs: mustprogress nounwind uwtable
define linkonce_odr hidden void @_ZNSt8__detail14_Node_iteratorISt4pairIKSt17basic_string_viewIcSt11char_traitsIcEEmELb0ELb1EEC2EPNS_10_Hash_nodeIS7_Lb1EEE(ptr noundef nonnull align 8 dereferenceable(8) %0, ptr noundef %1) unnamed_addr #1 comdat align 2 {
  %3 = alloca ptr, align 8
  %4 = alloca ptr, align 8
  store ptr %0, ptr %3, align 8
  store ptr %1, ptr %4, align 8
  %5 = load ptr, ptr %3, align 8
  %6 = load ptr, ptr %4, align 8
  call void @_ZNSt8__detail19_Node_iterator_baseISt4pairIKSt17basic_string_viewIcSt11char_traitsIcEEmELb1EEC2EPNS_10_Hash_nodeIS7_Lb1EEE(ptr noundef nonnull align 8 dereferenceable(8) %5, ptr noundef %6) #2
  ret void
}

; Function Attrs: mustprogress nounwind uwtable
define linkonce_odr hidden noundef ptr @_ZNSt8__detail21_Hash_node_value_baseISt4pairIKSt17basic_string_viewIcSt11char_traitsIcEEmEE9_M_valptrEv(ptr noundef nonnull align 8 dereferenceable(24) %0) #1 comdat align 2 {
  %2 = alloca ptr, align 8
  store ptr %0, ptr %2, align 8
  %3 = load ptr, ptr %2, align 8
  %4 = getelementptr inbounds %"struct.std::__detail::_Hash_node_value_base.100", ptr %3, i32 0, i32 0
  %5 = call noundef ptr @_ZN9__gnu_cxx16__aligned_bufferISt4pairIKSt17basic_string_viewIcSt11char_traitsIcEEmEE6_M_ptrEv(ptr noundef nonnull align 8 dereferenceable(24) %4) #2
  ret ptr %5
}

; Function Attrs: mustprogress nounwind uwtable
define linkonce_odr hidden ptr @_ZNSt10_HashtableISt17basic_string_viewIcSt11char_traitsIcEESt4pairIKS3_mESaIS6_ENSt8__detail10_Select1stESt8equal_toIS3_ESt4hashIS3_ENS8_18_Mod_range_hashingENS8_20_Default_ranged_hashENS8_20_Prime_rehash_policyENS8_17_Hashtable_traitsILb1ELb0ELb1EEEE3endEv(ptr noundef nonnull align 8 dereferenceable(56) %0) #1 comdat align 2 {
  %2 = alloca %"struct.std::__detail::_Node_iterator", align 8
  %3 = alloca ptr, align 8
  store ptr %0, ptr %3, align 8
  call void @_ZNSt8__detail14_Node_iteratorISt4pairIKSt17basic_string_viewIcSt11char_traitsIcEEmELb0ELb1EEC2EPNS_10_Hash_nodeIS7_Lb1EEE(ptr noundef nonnull align 8 dereferenceable(8) %2, ptr noundef null) #2
  %4 = getelementptr inbounds %"struct.std::__detail::_Node_iterator", ptr %2, i32 0, i32 0
  %5 = getelementptr inbounds %"struct.std::__detail::_Node_iterator_base", ptr %4, i32 0, i32 0
  %6 = load ptr, ptr %5, align 8
  ret ptr %6
}

; Function Attrs: mustprogress nounwind uwtable
define linkonce_odr hidden noundef nonnull align 8 dereferenceable(224) ptr @_ZNSt6vectorIN8WasmEdge6Plugin6PluginESaIS2_EEixEm(ptr noundef nonnull align 8 dereferenceable(24) %0, i64 noundef %1) #1 comdat align 2 {
  %3 = alloca ptr, align 8
  %4 = alloca i64, align 8
  store ptr %0, ptr %3, align 8
  store i64 %1, ptr %4, align 8
  %5 = load ptr, ptr %3, align 8
  %6 = getelementptr inbounds %"struct.std::_Vector_base.6", ptr %5, i32 0, i32 0
  %7 = getelementptr inbounds %"struct.std::_Vector_base<WasmEdge::Plugin::Plugin, std::allocator<WasmEdge::Plugin::Plugin>>::_Vector_impl_data", ptr %6, i32 0, i32 0
  %8 = load ptr, ptr %7, align 8
  %9 = load i64, ptr %4, align 8
  %10 = getelementptr inbounds %"class.WasmEdge::Plugin::Plugin", ptr %8, i64 %9
  ret ptr %10
}

; Function Attrs: mustprogress nounwind uwtable
define linkonce_odr hidden noundef ptr @_ZNKSt8__detail14_Node_iteratorISt4pairIKSt17basic_string_viewIcSt11char_traitsIcEEmELb0ELb1EEptEv(ptr noundef nonnull align 8 dereferenceable(8) %0) #1 comdat align 2 {
  %2 = alloca ptr, align 8
  store ptr %0, ptr %2, align 8
  %3 = load ptr, ptr %2, align 8
  %4 = getelementptr inbounds %"struct.std::__detail::_Node_iterator_base", ptr %3, i32 0, i32 0
  %5 = load ptr, ptr %4, align 8
  %6 = getelementptr inbounds i8, ptr %5, i64 8
  %7 = call noundef ptr @_ZNSt8__detail21_Hash_node_value_baseISt4pairIKSt17basic_string_viewIcSt11char_traitsIcEEmEE9_M_valptrEv(ptr noundef nonnull align 8 dereferenceable(24) %6) #2
  ret ptr %7
}

; Function Attrs: mustprogress nounwind uwtable
define linkonce_odr noundef zeroext i1 @_ZNSt8__detailneERKNS_19_Node_iterator_baseISt4pairIKSt17basic_string_viewIcSt11char_traitsIcEEmELb1EEESA_(ptr noundef nonnull align 8 dereferenceable(8) %0, ptr noundef nonnull align 8 dereferenceable(8) %1) #1 comdat {
  %3 = alloca ptr, align 8
  %4 = alloca ptr, align 8
  store ptr %0, ptr %3, align 8
  store ptr %1, ptr %4, align 8
  %5 = load ptr, ptr %3, align 8
  %6 = getelementptr inbounds %"struct.std::__detail::_Node_iterator_base", ptr %5, i32 0, i32 0
  %7 = load ptr, ptr %6, align 8
  %8 = load ptr, ptr %4, align 8
  %9 = getelementptr inbounds %"struct.std::__detail::_Node_iterator_base", ptr %8, i32 0, i32 0
  %10 = load ptr, ptr %9, align 8
  %11 = icmp ne ptr %7, %10
  ret i1 %11
}

; Function Attrs: mustprogress nounwind uwtable
define linkonce_odr hidden ptr @_ZNSt13unordered_mapISt17basic_string_viewIcSt11char_traitsIcEEmSt4hashIS3_ESt8equal_toIS3_ESaISt4pairIKS3_mEEE3endEv(ptr noundef nonnull align 8 dereferenceable(56) %0) #1 comdat align 2 {
  %2 = alloca %"struct.std::__detail::_Node_iterator", align 8
  %3 = alloca ptr, align 8
  store ptr %0, ptr %3, align 8
  %4 = load ptr, ptr %3, align 8
  %5 = getelementptr inbounds %"class.std::unordered_map.10", ptr %4, i32 0, i32 0
  %6 = call ptr @_ZNSt10_HashtableISt17basic_string_viewIcSt11char_traitsIcEESt4pairIKS3_mESaIS6_ENSt8__detail10_Select1stESt8equal_toIS3_ESt4hashIS3_ENS8_18_Mod_range_hashingENS8_20_Default_ranged_hashENS8_20_Prime_rehash_policyENS8_17_Hashtable_traitsILb1ELb0ELb1EEEE3endEv(ptr noundef nonnull align 8 dereferenceable(56) %5) #2
  %7 = getelementptr inbounds %"struct.std::__detail::_Node_iterator", ptr %2, i32 0, i32 0
  %8 = getelementptr inbounds %"struct.std::__detail::_Node_iterator_base", ptr %7, i32 0, i32 0
  store ptr %6, ptr %8, align 8
  %9 = getelementptr inbounds %"struct.std::__detail::_Node_iterator", ptr %2, i32 0, i32 0
  %10 = getelementptr inbounds %"struct.std::__detail::_Node_iterator_base", ptr %9, i32 0, i32 0
  %11 = load ptr, ptr %10, align 8
  ret ptr %11
}

; Function Attrs: mustprogress uwtable
define linkonce_odr hidden ptr @_ZNSt13unordered_mapISt17basic_string_viewIcSt11char_traitsIcEEmSt4hashIS3_ESt8equal_toIS3_ESaISt4pairIKS3_mEEE4findERS9_(ptr noundef nonnull align 8 dereferenceable(56) %0, ptr noundef nonnull align 8 dereferenceable(16) %1) #4 comdat align 2 {
  %3 = alloca %"struct.std::__detail::_Node_iterator", align 8
  %4 = alloca ptr, align 8
  %5 = alloca ptr, align 8
  store ptr %0, ptr %4, align 8
  store ptr %1, ptr %5, align 8
  %6 = load ptr, ptr %4, align 8
  %7 = getelementptr inbounds %"class.std::unordered_map.10", ptr %6, i32 0, i32 0
  %8 = load ptr, ptr %5, align 8
  %9 = call ptr @_ZNSt10_HashtableISt17basic_string_viewIcSt11char_traitsIcEESt4pairIKS3_mESaIS6_ENSt8__detail10_Select1stESt8equal_toIS3_ESt4hashIS3_ENS8_18_Mod_range_hashingENS8_20_Default_ranged_hashENS8_20_Prime_rehash_policyENS8_17_Hashtable_traitsILb1ELb0ELb1EEEE4findERS5_(ptr noundef nonnull align 8 dereferenceable(56) %7, ptr noundef nonnull align 8 dereferenceable(16) %8)
  %10 = getelementptr inbounds %"struct.std::__detail::_Node_iterator", ptr %3, i32 0, i32 0
  %11 = getelementptr inbounds %"struct.std::__detail::_Node_iterator_base", ptr %10, i32 0, i32 0
  store ptr %9, ptr %11, align 8
  %12 = getelementptr inbounds %"struct.std::__detail::_Node_iterator", ptr %3, i32 0, i32 0
  %13 = getelementptr inbounds %"struct.std::__detail::_Node_iterator_base", ptr %12, i32 0, i32 0
  %14 = load ptr, ptr %13, align 8
  ret ptr %14
}

; Function Attrs: mustprogress nounwind uwtable
define noundef ptr @_ZN8WasmEdge6Plugin6Plugin4findESt17basic_string_viewIcSt11char_traitsIcEE(i64 %0, ptr %1) #1 align 2 personality ptr @__gxx_personality_v0 {
  %3 = alloca ptr, align 8
  %4 = alloca %"class.std::basic_string_view", align 8
  %5 = alloca %"struct.std::__detail::_Node_iterator", align 8
  %6 = alloca %"struct.std::__detail::_Node_iterator", align 8
  %7 = getelementptr inbounds { i64, ptr }, ptr %4, i32 0, i32 0
  store i64 %0, ptr %7, align 8
  %8 = getelementptr inbounds { i64, ptr }, ptr %4, i32 0, i32 1
  store ptr %1, ptr %8, align 8
  %9 = invoke ptr @_ZNSt13unordered_mapISt17basic_string_viewIcSt11char_traitsIcEEmSt4hashIS3_ESt8equal_toIS3_ESaISt4pairIKS3_mEEE4findERS9_(ptr noundef nonnull align 8 dereferenceable(56) @_ZN8WasmEdge6Plugin6Plugin16PluginNameLookupE, ptr noundef nonnull align 8 dereferenceable(16) %4)
          to label %10 unwind label %25

10:                                               ; preds = %2
  %11 = getelementptr inbounds %"struct.std::__detail::_Node_iterator", ptr %5, i32 0, i32 0
  %12 = getelementptr inbounds %"struct.std::__detail::_Node_iterator_base", ptr %11, i32 0, i32 0
  store ptr %9, ptr %12, align 8
  %13 = call ptr @_ZNSt13unordered_mapISt17basic_string_viewIcSt11char_traitsIcEEmSt4hashIS3_ESt8equal_toIS3_ESaISt4pairIKS3_mEEE3endEv(ptr noundef nonnull align 8 dereferenceable(56) @_ZN8WasmEdge6Plugin6Plugin16PluginNameLookupE) #2
  %14 = getelementptr inbounds %"struct.std::__detail::_Node_iterator", ptr %6, i32 0, i32 0
  %15 = getelementptr inbounds %"struct.std::__detail::_Node_iterator_base", ptr %14, i32 0, i32 0
  store ptr %13, ptr %15, align 8
  %16 = call noundef zeroext i1 @_ZNSt8__detailneERKNS_19_Node_iterator_baseISt4pairIKSt17basic_string_viewIcSt11char_traitsIcEEmELb1EEESA_(ptr noundef nonnull align 8 dereferenceable(8) %5, ptr noundef nonnull align 8 dereferenceable(8) %6) #2
  br i1 %16, label %17, label %22

17:                                               ; preds = %10
  %18 = call noundef ptr @_ZNKSt8__detail14_Node_iteratorISt4pairIKSt17basic_string_viewIcSt11char_traitsIcEEmELb0ELb1EEptEv(ptr noundef nonnull align 8 dereferenceable(8) %5) #2
  %19 = getelementptr inbounds %"struct.std::pair", ptr %18, i32 0, i32 1
  %20 = load i64, ptr %19, align 8
  %21 = call noundef nonnull align 8 dereferenceable(224) ptr @_ZNSt6vectorIN8WasmEdge6Plugin6PluginESaIS2_EEixEm(ptr noundef nonnull align 8 dereferenceable(24) @_ZN8WasmEdge6Plugin6Plugin14PluginRegistryE, i64 noundef %20) #2
  store ptr %21, ptr %3, align 8
  br label %23

22:                                               ; preds = %10
  store ptr null, ptr %3, align 8
  br label %23

23:                                               ; preds = %22, %17
  %24 = load ptr, ptr %3, align 8
  ret ptr %24

25:                                               ; preds = %2
  %26 = landingpad { ptr, i32 }
          catch ptr null
  %27 = extractvalue { ptr, i32 } %26, 0
  call void @__clang_call_terminate(ptr %27) #18
  unreachable
}