; Function Attrs: mustprogress nounwind uwtable
define noundef ptr @_ZN8WasmEdge6Plugin6Plugin4findESt17basic_string_viewIcSt11char_traitsIcEE(i64 %0, ptr %1) local_unnamed_addr #0 align 2 personality ptr @__gxx_personality_v0 {
  %3 = alloca %"class.std::basic_string_view", align 8
  store i64 %0, ptr %3, align 8
  %4 = getelementptr inbounds i8, ptr %3, i64 8
  store ptr %1, ptr %4, align 8
  %5 = invoke ptr @_ZNSt10_HashtableISt17basic_string_viewIcSt11char_traitsIcEESt4pairIKS3_mESaIS6_ENSt8__detail10_Select1stESt8equal_toIS3_ESt4hashIS3_ENS8_18_Mod_range_hashingENS8_20_Default_ranged_hashENS8_20_Prime_rehash_policyENS8_17_Hashtable_traitsILb1ELb0ELb1EEEE4findERS5_(ptr noundef nonnull align 8 dereferenceable(56) @_ZN8WasmEdge6Plugin6Plugin16PluginNameLookupE, ptr noundef nonnull align 8 dereferenceable(16) %3)
          to label %_ZNSt13unordered_mapISt17basic_string_viewIcSt11char_traitsIcEEmSt4hashIS3_ESt8equal_toIS3_ESaISt4pairIKS3_mEEE4findERS9_.exit unwind label %12

_ZNSt13unordered_mapISt17basic_string_viewIcSt11char_traitsIcEEmSt4hashIS3_ESt8equal_toIS3_ESaISt4pairIKS3_mEEE4findERS9_.exit: ; preds = %2
  %.not = icmp eq ptr %5, null
  br i1 %.not, label %11, label %6

6:                                                ; preds = %_ZNSt13unordered_mapISt17basic_string_viewIcSt11char_traitsIcEEmSt4hashIS3_ESt8equal_toIS3_ESaISt4pairIKS3_mEEE4findERS9_.exit
  %7 = getelementptr inbounds i8, ptr %5, i64 24
  %8 = load i64, ptr %7, align 8
  %9 = load ptr, ptr @_ZN8WasmEdge6Plugin6Plugin14PluginRegistryE, align 8
  %10 = getelementptr inbounds %"class.WasmEdge::Plugin::Plugin", ptr %9, i64 %8
  br label %11

11:                                               ; preds = %_ZNSt13unordered_mapISt17basic_string_viewIcSt11char_traitsIcEEmSt4hashIS3_ESt8equal_toIS3_ESaISt4pairIKS3_mEEE4findERS9_.exit, %6
  %.0 = phi ptr [ %10, %6 ], [ null, %_ZNSt13unordered_mapISt17basic_string_viewIcSt11char_traitsIcEEmSt4hashIS3_ESt8equal_toIS3_ESaISt4pairIKS3_mEEE4findERS9_.exit ]
  ret ptr %.0

12:                                               ; preds = %2
  %13 = landingpad { ptr, i32 }
          catch ptr null
  %14 = extractvalue { ptr, i32 } %13, 0
  call void @__clang_call_terminate(ptr %14) #26
  unreachable
}